target datalayout = "e-m:e-p270:32:32-p271:32:32-p272:64:64-i64:64-i128:128-f80:128-n8:16:32:64-S128"
target triple = "x86_64-pc-linux-gnu"

%struct.prte_process_info_t = type { %struct.pmix_proc, %struct.pmix_proc, ptr, %struct.pmix_proc, i32, i32, i32, ptr, ptr, i32, i8, ptr, i16, ptr, ptr, i8, ptr, i8 }
%struct.pmix_proc = type { [256 x i8], i32 }

@prte_stacktrace_output_fileno = global i32 -1, align 4
@.str = private unnamed_addr constant [3 x i8] c"%s\00", align 1
@prte_stacktrace_output_filename_max_len = internal global i64 0, align 8
@prte_stacktrace_output_filename = external global ptr, align 8
@.str.1 = private unnamed_addr constant [91 x i8] c"Error: Failed to open the stacktrace output file. Default: stderr\0A\09Filename: %s\0A\09Errno: %s\00", align 1
@stderr = external global ptr, align 8
@stdout = external global ptr, align 8
@prte_stacktrace_output_filename_base = internal global ptr null, align 8
@.str.13 = private unnamed_addr constant [11 x i8] c"%s.%lu.%lu\00", align 1
@prte_process_info = external global %struct.prte_process_info_t, align 8

; Function Attrs: nounwind uwtable
define internal void @set_stacktrace_filename() #0 {
  %1 = load ptr, ptr @prte_stacktrace_output_filename, align 8, !tbaa !10
  %2 = load i64, ptr @prte_stacktrace_output_filename_max_len, align 8, !tbaa !14
  %3 = load ptr, ptr @prte_stacktrace_output_filename_base, align 8, !tbaa !10
  %4 = load i32, ptr getelementptr inbounds nuw (%struct.pmix_proc, ptr @prte_process_info, i32 0, i32 1), align 8, !tbaa !18
  %5 = zext i32 %4 to i64
  %6 = call i32 @getpid() #8
  %7 = sext i32 %6 to i64
  %8 = call i32 (ptr, i64, ptr, ...) @snprintf(ptr noundef %1, i64 noundef %2, ptr noundef @.str.13, ptr noundef %3, i64 noundef %5, i64 noundef %7) #8
  ret void
}

; Function Attrs: nounwind uwtable
define void @prte_stackframe_output(i32 noundef %0) #0 {
  %2 = alloca i32, align 4
  %3 = alloca i32, align 4
  %4 = alloca ptr, align 8
  %5 = alloca i32, align 4
  %6 = alloca i32, align 4
  store i32 %0, ptr %2, align 4, !tbaa !3
  call void @llvm.lifetime.start.p0(i64 4, ptr %3) #8
  call void @llvm.lifetime.start.p0(i64 8, ptr %4) #8
  %7 = call i32 @prte_backtrace_buffer(ptr noundef %4, ptr noundef %3)
  %8 = icmp eq i32 0, %7
  br i1 %8, label %9, label %25

9:                                                ; preds = %1
  call void @llvm.lifetime.start.p0(i64 4, ptr %5) #8
  store i32 2, ptr %5, align 4, !tbaa !3
  br label %10

10:                                               ; preds = %21, %9
  %11 = load i32, ptr %5, align 4, !tbaa !3
  %12 = load i32, ptr %3, align 4, !tbaa !3
  %13 = icmp slt i32 %11, %12
  br i1 %13, label %14, label %24

14:                                               ; preds = %10
  %15 = load i32, ptr %2, align 4, !tbaa !3
  %16 = load ptr, ptr %4, align 8, !tbaa !7
  %17 = load i32, ptr %5, align 4, !tbaa !3
  %18 = sext i32 %17 to i64
  %19 = getelementptr inbounds ptr, ptr %16, i64 %18
  %20 = load ptr, ptr %19, align 8, !tbaa !10
  call void (i32, ptr, ...) @pmix_output(i32 noundef %15, ptr noundef @.str, ptr noundef %20)
  br label %21

21:                                               ; preds = %14
  %22 = load i32, ptr %5, align 4, !tbaa !3
  %23 = add nsw i32 %22, 1
  store i32 %23, ptr %5, align 4, !tbaa !3
  br label %10, !llvm.loop !12

24:                                               ; preds = %10
  call void @llvm.lifetime.end.p0(i64 4, ptr %5) #8
  br label %63

25:                                               ; preds = %1
  %26 = load i32, ptr @prte_stacktrace_output_fileno, align 4, !tbaa !3
  %27 = icmp sgt i32 0, %26
  br i1 %27, label %28, label %32

28:                                               ; preds = %25
  %29 = load i64, ptr @prte_stacktrace_output_filename_max_len, align 8, !tbaa !14
  %30 = icmp eq i64 0, %29
  br i1 %30, label %31, label %32

31:                                               ; preds = %28
  store i32 1, ptr %6, align 4
  br label %64

32:                                               ; preds = %28, %25
  %33 = load i64, ptr @prte_stacktrace_output_filename_max_len, align 8, !tbaa !14
  %34 = icmp ult i64 0, %33
  br i1 %34, label %35, label %48

35:                                               ; preds = %32
  call void @set_stacktrace_filename()
  %36 = load ptr, ptr @prte_stacktrace_output_filename, align 8, !tbaa !10
  %37 = call i32 (ptr, i32, ...) @open(ptr noundef %36, i32 noundef 577, i32 noundef 384)
  store i32 %37, ptr @prte_stacktrace_output_fileno, align 4, !tbaa !3
  %38 = load i32, ptr @prte_stacktrace_output_fileno, align 4, !tbaa !3
  %39 = icmp sgt i32 0, %38
  br i1 %39, label %40, label %47

40:                                               ; preds = %35
  %41 = load ptr, ptr @prte_stacktrace_output_filename, align 8, !tbaa !10
  %42 = call ptr @__errno_location() #9
  %43 = load i32, ptr %42, align 4, !tbaa !3
  %44 = call ptr @strerror(i32 noundef %43) #8
  call void (i32, ptr, ...) @pmix_output(i32 noundef 0, ptr noundef @.str.1, ptr noundef %41, ptr noundef %44)
  %45 = load ptr, ptr @stderr, align 8, !tbaa !16
  %46 = call i32 @fileno(ptr noundef %45) #8
  store i32 %46, ptr @prte_stacktrace_output_fileno, align 4, !tbaa !3
  br label %47

47:                                               ; preds = %40, %35
  br label %48

48:                                               ; preds = %47, %32
  %49 = call i32 @prte_backtrace_print(ptr noundef null, ptr noundef null, i32 noundef 2)
  %50 = load ptr, ptr @stdout, align 8, !tbaa !16
  %51 = call i32 @fileno(ptr noundef %50) #8
  %52 = load i32, ptr @prte_stacktrace_output_fileno, align 4, !tbaa !3
  %53 = icmp ne i32 %51, %52
  br i1 %53, label %54, label %62

54:                                               ; preds = %48
  %55 = load ptr, ptr @stderr, align 8, !tbaa !16
  %56 = call i32 @fileno(ptr noundef %55) #8
  %57 = load i32, ptr @prte_stacktrace_output_fileno, align 4, !tbaa !3
  %58 = icmp ne i32 %56, %57
  br i1 %58, label %59, label %62

59:                                               ; preds = %54
  %60 = load i32, ptr @prte_stacktrace_output_fileno, align 4, !tbaa !3
  %61 = call i32 @close(i32 noundef %60)
  store i32 -1, ptr @prte_stacktrace_output_fileno, align 4, !tbaa !3
  br label %62

62:                                               ; preds = %59, %54, %48
  br label %63

63:                                               ; preds = %62, %24
  store i32 0, ptr %6, align 4
  br label %64

64:                                               ; preds = %63, %31
  call void @llvm.lifetime.end.p0(i64 8, ptr %4) #8
  call void @llvm.lifetime.end.p0(i64 4, ptr %3) #8
  %65 = load i32, ptr %6, align 4
  switch i32 %65, label %67 [
    i32 0, label %66
    i32 1, label %66
  ]

66:                                               ; preds = %64, %64
  ret void

67:                                               ; preds = %64
  unreachable
}