; Function Attrs: nounwind uwtable
define void @prte_stackframe_output(i32 noundef %0) local_unnamed_addr #0 {
  %2 = alloca i32, align 4
  %3 = alloca ptr, align 8
  call void @llvm.lifetime.start.p0(i64 4, ptr nonnull %2) #15
  call void @llvm.lifetime.start.p0(i64 8, ptr nonnull %3) #15
  %4 = call i32 @prte_backtrace_buffer(ptr noundef nonnull %3, ptr noundef nonnull %2) #15
  %5 = icmp eq i32 %4, 0
  br i1 %5, label %.preheader, label %14

.preheader:                                       ; preds = %1
  %6 = load i32, ptr %2, align 4, !tbaa !3
  %7 = icmp sgt i32 %6, 2
  br i1 %7, label %.lr.ph, label %.loopexit

.lr.ph:                                           ; preds = %.preheader, %.lr.ph
  %indvars.iv = phi i64 [ %indvars.iv.next, %.lr.ph ], [ 2, %.preheader ]
  %8 = load ptr, ptr %3, align 8, !tbaa !7
  %9 = getelementptr inbounds nuw ptr, ptr %8, i64 %indvars.iv
  %10 = load ptr, ptr %9, align 8, !tbaa !10
  call void (i32, ptr, ...) @pmix_output(i32 noundef %0, ptr noundef nonnull @.str, ptr noundef %10) #15
  %indvars.iv.next = add nuw nsw i64 %indvars.iv, 1
  %11 = load i32, ptr %2, align 4, !tbaa !3
  %12 = sext i32 %11 to i64
  %13 = icmp slt i64 %indvars.iv.next, %12
  br i1 %13, label %.lr.ph, label %.loopexit, !llvm.loop !12

14:                                               ; preds = %1
  %15 = load i32, ptr @prte_stacktrace_output_fileno, align 4, !tbaa !3
  %16 = icmp slt i32 %15, 0
  %17 = load i64, ptr @prte_stacktrace_output_filename_max_len, align 8
  %18 = icmp eq i64 %17, 0
  %or.cond = select i1 %16, i1 %18, i1 false
  br i1 %or.cond, label %.loopexit, label %19

19:                                               ; preds = %14
  br i1 %18, label %38, label %20

20:                                               ; preds = %19
  %21 = load ptr, ptr @prte_stacktrace_output_filename, align 8, !tbaa !10
  %22 = load ptr, ptr @prte_stacktrace_output_filename_base, align 8, !tbaa !10
  %23 = load i32, ptr getelementptr inbounds nuw (i8, ptr @prte_process_info, i64 256), align 8, !tbaa !14
  %24 = zext i32 %23 to i64
  %25 = call i32 @getpid() #15
  %26 = sext i32 %25 to i64
  %27 = call i32 (ptr, i64, ptr, ...) @snprintf(ptr noundef %21, i64 noundef %17, ptr noundef nonnull @.str.13, ptr noundef %22, i64 noundef %24, i64 noundef %26) #15
  %28 = load ptr, ptr @prte_stacktrace_output_filename, align 8, !tbaa !10
  %29 = call i32 (ptr, i32, ...) @open(ptr noundef %28, i32 noundef 577, i32 noundef 384) #15
  store i32 %29, ptr @prte_stacktrace_output_fileno, align 4, !tbaa !3
  %30 = icmp slt i32 %29, 0
  br i1 %30, label %31, label %38

31:                                               ; preds = %20
  %32 = load ptr, ptr @prte_stacktrace_output_filename, align 8, !tbaa !10
  %33 = tail call ptr @__errno_location() #16
  %34 = load i32, ptr %33, align 4, !tbaa !3
  %35 = call ptr @strerror(i32 noundef %34) #15
  call void (i32, ptr, ...) @pmix_output(i32 noundef 0, ptr noundef nonnull @.str.1, ptr noundef %32, ptr noundef %35) #15
  %36 = load ptr, ptr @stderr, align 8, !tbaa !19
  %37 = call i32 @fileno(ptr noundef %36) #15
  store i32 %37, ptr @prte_stacktrace_output_fileno, align 4, !tbaa !3
  br label %38

38:                                               ; preds = %20, %31, %19
  %39 = call i32 @prte_backtrace_print(ptr noundef null, ptr noundef null, i32 noundef 2) #15
  %40 = load ptr, ptr @stdout, align 8, !tbaa !19
  %41 = call i32 @fileno(ptr noundef %40) #15
  %42 = load i32, ptr @prte_stacktrace_output_fileno, align 4, !tbaa !3
  %.not6 = icmp eq i32 %41, %42
  br i1 %.not6, label %.loopexit, label %43

43:                                               ; preds = %38
  %44 = load ptr, ptr @stderr, align 8, !tbaa !19
  %45 = call i32 @fileno(ptr noundef %44) #15
  %46 = load i32, ptr @prte_stacktrace_output_fileno, align 4, !tbaa !3
  %.not7 = icmp eq i32 %45, %46
  br i1 %.not7, label %.loopexit, label %47

47:                                               ; preds = %43
  %48 = call i32 @close(i32 noundef %46) #15
  store i32 -1, ptr @prte_stacktrace_output_fileno, align 4, !tbaa !3
  br label %.loopexit

.loopexit:                                        ; preds = %.lr.ph, %.preheader, %47, %43, %38, %14
  call void @llvm.lifetime.end.p0(i64 8, ptr nonnull %3) #15
  call void @llvm.lifetime.end.p0(i64 4, ptr nonnull %2) #15
  ret void
}